; Function Attrs: mustprogress uwtable
define void @_ZN30MLRenderingWireParametersFrame19setAssociatedMeshIdEi(ptr nocapture noundef nonnull align 8 dereferenceable(112) %0, i32 noundef %1) unnamed_addr #3 align 2 {
  %3 = getelementptr inbounds i8, ptr %0, i64 48
  store i32 %1, ptr %3, align 8
  %4 = getelementptr inbounds i8, ptr %0, i64 64
  %5 = load ptr, ptr %4, align 8
  tail call void @_ZN18MLRenderingToolbar19setAssociatedMeshIdEi(ptr noundef nonnull align 8 dereferenceable(96) %5, i32 noundef %1)
  %6 = getelementptr inbounds i8, ptr %0, i64 80
  %7 = load ptr, ptr %6, align 8
  tail call void @_ZN18MLRenderingToolbar19setAssociatedMeshIdEi(ptr noundef nonnull align 8 dereferenceable(96) %7, i32 noundef %1)
  %8 = getelementptr inbounds i8, ptr %0, i64 96
  %9 = load ptr, ptr %8, align 8
  %10 = getelementptr inbounds i8, ptr %9, i64 48
  store i32 %1, ptr %10, align 8
  %11 = getelementptr inbounds i8, ptr %9, i64 56
  %12 = load ptr, ptr %11, align 8
  %.not.i = icmp eq ptr %12, null
  br i1 %.not.i, label %_ZN23MLRenderingOnOffToolbar19setAssociatedMeshIdEi.exit, label %13

13:                                               ; preds = %2
  tail call void @_ZN17MLRenderingAction9setMeshIdEi(ptr noundef nonnull align 8 dereferenceable(16) %12, i32 noundef %1)
  br label %_ZN23MLRenderingOnOffToolbar19setAssociatedMeshIdEi.exit

_ZN23MLRenderingOnOffToolbar19setAssociatedMeshIdEi.exit: ; preds = %2, %13
  %14 = getelementptr inbounds i8, ptr %0, i64 104
  %15 = load ptr, ptr %14, align 8
  %16 = getelementptr inbounds i8, ptr %15, i64 56
  store i32 %1, ptr %16, align 8
  %17 = getelementptr inbounds i8, ptr %15, i64 48
  %18 = load ptr, ptr %17, align 8
  %.not.i5 = icmp eq ptr %18, null
  br i1 %.not.i5, label %_ZN22MLRenderingFloatSlider19setAssociatedMeshIdEi.exit, label %19

19:                                               ; preds = %_ZN23MLRenderingOnOffToolbar19setAssociatedMeshIdEi.exit
  tail call void @_ZN17MLRenderingAction9setMeshIdEi(ptr noundef nonnull align 8 dereferenceable(16) %18, i32 noundef %1)
  br label %_ZN22MLRenderingFloatSlider19setAssociatedMeshIdEi.exit

_ZN22MLRenderingFloatSlider19setAssociatedMeshIdEi.exit: ; preds = %_ZN23MLRenderingOnOffToolbar19setAssociatedMeshIdEi.exit, %19
  ret void
}